; Function Attrs: nounwind uwtable
define noalias noundef ptr @Saig_ManCbaPerform(ptr noundef %0, i32 noundef %1, ptr noundef %2) local_unnamed_addr #0 {
  %4 = alloca %struct.timespec, align 8
  %5 = alloca %struct.timespec, align 8
  call void @llvm.lifetime.start.p0(i64 16, ptr nonnull %5) #20
  %6 = call i32 @clock_gettime(i32 noundef 1, ptr noundef nonnull %5) #20
  %7 = icmp slt i32 %6, 0
  br i1 %7, label %Abc_Clock.exit, label %8

8:                                                ; preds = %3
  %9 = load i64, ptr %5, align 8, !tbaa !109
  %.neg26 = mul i64 %9, -1000000
  %10 = getelementptr inbounds nuw i8, ptr %5, i64 8
  %11 = load i64, ptr %10, align 8, !tbaa !111
  %.neg = sdiv i64 %11, -1000
  %.neg27 = add i64 %.neg, %.neg26
  br label %Abc_Clock.exit

Abc_Clock.exit:                                   ; preds = %3, %8
  %.0.i.neg = phi i64 [ %.neg27, %8 ], [ 1, %3 ]
  call void @llvm.lifetime.end.p0(i64 16, ptr nonnull %5) #20
  %12 = call i32 @Saig_ManBmcScalable(ptr noundef %0, ptr noundef %2) #20
  %13 = icmp eq i32 %12, -1
  br i1 %13, label %14, label %15

14:                                               ; preds = %Abc_Clock.exit
  %puts20 = call i32 @puts(ptr nonnull dereferenceable(1) @str.1)
  %calloc = call dereferenceable_or_null(16) ptr @calloc(i64 1, i64 16)
  br label %52

15:                                               ; preds = %Abc_Clock.exit
  %16 = getelementptr inbounds nuw i8, ptr %0, i64 408
  %17 = load ptr, ptr %16, align 8, !tbaa !117
  %18 = icmp eq ptr %17, null
  br i1 %18, label %19, label %20

19:                                               ; preds = %15
  %puts = call i32 @puts(ptr nonnull dereferenceable(1) @str)
  %calloc29 = call dereferenceable_or_null(16) ptr @calloc(i64 1, i64 16)
  br label %52

20:                                               ; preds = %15
  %21 = getelementptr inbounds nuw i8, ptr %2, i64 84
  %22 = load i32, ptr %21, align 4, !tbaa !118
  %.not = icmp eq i32 %22, 0
  br i1 %.not, label %24, label %23

23:                                               ; preds = %20
  call void @Abc_CexPrintStats(ptr noundef nonnull %17) #20
  %.pre = load ptr, ptr %16, align 8, !tbaa !117
  %.pre28 = load i32, ptr %21, align 4, !tbaa !118
  br label %24

24:                                               ; preds = %23, %20
  %25 = phi i32 [ %.pre28, %23 ], [ 0, %20 ]
  %26 = phi ptr [ %.pre, %23 ], [ %17, %20 ]
  %27 = call ptr @Saig_ManCbaFilterInputs(ptr noundef nonnull %0, i32 noundef %1, ptr noundef %26, i32 noundef %25)
  %28 = getelementptr i8, ptr %27, i64 4
  %.val22 = load i32, ptr %28, align 4, !tbaa !3
  %29 = icmp eq i32 %.val22, 0
  br i1 %29, label %30, label %34

30:                                               ; preds = %24
  %31 = getelementptr inbounds nuw i8, ptr %27, i64 8
  %32 = load ptr, ptr %31, align 8, !tbaa !11
  %.not.i = icmp eq ptr %32, null
  br i1 %.not.i, label %Vec_IntFree.exit, label %33

33:                                               ; preds = %30
  call void @free(ptr noundef nonnull %32) #20
  br label %Vec_IntFree.exit

Vec_IntFree.exit:                                 ; preds = %30, %33
  call void @free(ptr noundef nonnull %27) #20
  br label %52

34:                                               ; preds = %24
  %35 = load i32, ptr %21, align 4, !tbaa !118
  %.not19 = icmp eq i32 %35, 0
  br i1 %.not19, label %52, label %36

36:                                               ; preds = %34
  %37 = getelementptr i8, ptr %0, i64 104
  %.val23 = load i32, ptr %37, align 8, !tbaa !28
  %38 = add nsw i32 %.val23, %.val22
  %39 = call i32 (ptr, ...) @printf(ptr noundef nonnull dereferenceable(1) @.str.10, i32 noundef %.val22, i32 noundef %38)
  call void @llvm.lifetime.start.p0(i64 16, ptr nonnull %4) #20
  %40 = call i32 @clock_gettime(i32 noundef 1, ptr noundef nonnull %4) #20
  %41 = icmp slt i32 %40, 0
  br i1 %41, label %Abc_Clock.exit25, label %42

42:                                               ; preds = %36
  %43 = load i64, ptr %4, align 8, !tbaa !109
  %44 = mul nsw i64 %43, 1000000
  %45 = getelementptr inbounds nuw i8, ptr %4, i64 8
  %46 = load i64, ptr %45, align 8, !tbaa !111
  %47 = sdiv i64 %46, 1000
  %48 = add nsw i64 %47, %44
  br label %Abc_Clock.exit25

Abc_Clock.exit25:                                 ; preds = %36, %42
  %.0.i24 = phi i64 [ %48, %42 ], [ -1, %36 ]
  call void @llvm.lifetime.end.p0(i64 16, ptr nonnull %4) #20
  %49 = add i64 %.0.i24, %.0.i.neg
  call void (i32, ptr, ...) @Abc_Print(i32 poison, ptr noundef nonnull @.str.2, ptr noundef nonnull @.str.3)
  %50 = sitofp i64 %49 to double
  %51 = fdiv double %50, 1.000000e+06
  call void (i32, ptr, ...) @Abc_Print(i32 poison, ptr noundef nonnull @.str.4, double noundef %51)
  br label %52

52:                                               ; preds = %34, %Abc_Clock.exit25, %Vec_IntFree.exit, %19, %14
  %.0 = phi ptr [ %calloc, %14 ], [ %calloc29, %19 ], [ null, %Vec_IntFree.exit ], [ %27, %Abc_Clock.exit25 ], [ %27, %34 ]
  ret ptr %.0
}